; Function Attrs: nounwind uwtable
define internal noundef i32 @cell_clear(ptr noundef captures(none) %0) #0 {
  %2 = getelementptr inbounds nuw i8, ptr %0, i64 16
  %3 = load ptr, ptr %2, align 8, !tbaa !106
  %.not = icmp eq ptr %3, null
  br i1 %.not, label %Py_DECREF.exit, label %4

4:                                                ; preds = %1
  store ptr null, ptr %2, align 8, !tbaa !106
  %5 = load i32, ptr %3, align 8, !tbaa !4
  %.not.i = icmp sgt i32 %5, -1
  br i1 %.not.i, label %6, label %Py_DECREF.exit

6:                                                ; preds = %4
  %7 = add nsw i32 %5, -1
  store i32 %7, ptr %3, align 8, !tbaa !4
  %8 = icmp eq i32 %7, 0
  br i1 %8, label %9, label %Py_DECREF.exit

9:                                                ; preds = %6
  tail call void @_Py_Dealloc(ptr noundef nonnull %3) #4
  br label %Py_DECREF.exit

Py_DECREF.exit:                                   ; preds = %9, %6, %4, %1
  ret i32 0
}